(dp0
I1025300
(dp1
S'eccentricity'
p2
cnumpy.core.multiarray
scalar
p3
(cnumpy
dtype
p4
(S'f8'
p5
I0
I1
tp6
Rp7
(I3
S'<'
p8
NNNI-1
I-1
I0
tp9
bS'\xb8\xc0\x9b\xc9\x8a\x8b\xe1?'
p10
tp11
Rp12
sS'timestamp'
p13
F1348889960.508186
sS'frame'
p14
I1025300
sS'orientation'
p15
g3
(g7
S'\x10Gv@\xb3k\xc8?'
p16
tp17
Rp18
sS'position'
p19
cnumpy.core.multiarray
_reconstruct
p20
(cnumpy
ndarray
p21
(I0
tp22
S'b'
p23
tp24
Rp25
(I1
(I2
tp26
g7
I00
S'33333=\x82@33333\xa3g@'
p27
tp28
bssI1025301
(dp29
g2
g3
(g7
S'\x1a@\xae7\xf4:\xdb?'
p30
tp31
Rp32
sg13
F1348889960.518253
sg14
I1025301
sg15
g3
(g7
S' \xb5\xd3\x08\xb2\xec\xcb?'
p33
tp34
Rp35
sg19
g20
(g21
(I0
tp36
g23
tp37
Rp38
(I1
(I2
tp39
g7
I00
S'\x0c\xc30\x0c\xc3\xcc\x81@%I\x92$I\x12g@'
p40
tp41
bssI1025302
(dp42
g2
g3
(g7
S'\x00\x00\x00\x00\x00\x00\xe0?'
p43
tp44
Rp45
sg13
F1348889960.528816
sg14
I1025302
sg15
g3
(g7
S'\x10\xe3aC\xdd\xf9\xc7?'
p46
tp47
Rp48
sg19
g20
(g21
(I0
tp49
g23
tp50
Rp51
(I1
(I2
tp52
g7
I00
S'"""""Z\x81@\x89\x88\x88\x88\x88xf@'
p53
tp54
bssI1025303
(dp55
g2
g3
(g7
S'\x05\xb4C\x10\xac\xc8\xe1?'
p56
tp57
Rp58
sg13
F1348889960.538149
sg14
I1025303
sg15
g3
(g7
S'\x90\x82%\xc77y\xcf?'
p59
tp60
Rp61
sg19
g20
(g21
(I0
tp62
g23
tp63
Rp64
(I1
(I2
tp65
g7
I00
S'\xa9\xefl\xd4w\xe6\x80@\x93+\x88\xc9\x15\xe4e@'
p66
tp67
bssI1025304
(dp68
g2
g3
(g7
S'\x9d\x9cCy0D\xd8?'
p69
tp70
Rp71
sg13
F1348889960.548527
sg14
I1025304
sg15
g3
(g7
S"\x90\x00&'\xba)\xd1?"
p72
tp73
Rp74
sg19
g20
(g21
(I0
tp75
g23
tp76
Rp77
(I1
(I2
tp78
g7
I00
S'UUUU\xd5s\x80@UUUUUUe@'
p79
tp80
bssI1025305
(dp81
g2
g3
(g7
S'\x93n\x85\x80e\x13\xe1?'
p82
tp83
Rp84
sg13
F1348889960.558418
sg14
I1025305
sg15
g3
(g7
S'@\xb2.\xf4\x14L\xd3?'
p85
tp86
Rp87
sg19
g20
(g21
(I0
tp88
g23
tp89
Rp90
(I1
(I2
tp91
g7
I00
S"\xb1\x13;\xb1\x13\xfb\x7f@'vb'v\xbad@"
p92
tp93
bssI1025306
(dp94
g2
g3
(g7
S'\x1e\xa0\xac_u9\xde?'
p95
tp96
Rp97
sg13
F1348889960.568148
sg14
I1025306
sg15
g3
(g7
S'`.V\x99\xb2\x8a\xcd?'
p98
tp99
Rp100
sg19
g20
(g21
(I0
tp101
g23
tp102
Rp103
(I1
(I2
tp104
g7
I00
S'\x87\xf2\x1a\xcak\x18\x7f@\xa2\xbc\x86\xf2\x1a\x1ad@'
p105
tp106
bssI1025307
(dp107
g2
g3
(g7
S'\xccf\xb8i\xb4\x92\xde?'
p108
tp109
Rp110
sg13
F1348889960.578296
sg14
I1025307
sg15
g3
(g7
S'\xe8B\xfb\xb6\x8by\xd1?'
p111
tp112
Rp113
sg19
g20
(g21
(I0
tp114
g23
tp115
Rp116
(I1
(I2
tp117
g7
I00
S'\x19c\x8c1\xc68~@J)\xa5\x94Rzc@'
p118
tp119
bssI1025308
(dp120
g2
g3
(g7
S'U\xf8{W\x87?\xe0?'
p121
tp122
Rp123
sg13
F1348889960.588155
sg14
I1025308
sg15
g3
(g7
S'0\xf5\xdc\x8f\xa2\xcb\xcc?'
p124
tp125
Rp126
sg19
g20
(g21
(I0
tp127
g23
tp128
Rp129
(I1
(I2
tp130
g7
I00
S'UUUUU]}@\xd1^B{\t\xddb@'
p131
tp132
bssI1025309
(dp133
g2
g3
(g7
S'\x03l\x94+\xb8\xad\xde?'
p134
tp135
Rp136
sg13
F1348889960.598311
sg14
I1025309
sg15
g3
(g7
S'\x08\x01A\xf2\x8d/\xd0?'
p137
tp138
Rp139
sg19
g20
(g21
(I0
tp140
g23
tp141
Rp142
(I1
(I2
tp143
g7
I00
S'sO#,\xf7\x84|@\xb9\xa7\x11\x96{Jb@'
p144
tp145
bssI1025310
(dp146
g2
g3
(g7
S'\xe8\x00\xf6\x12\x9a\r\xda?'
p147
tp148
Rp149
sg13
F1348889960.608729
sg14
I1025310
sg15
g3
(g7
S'\xd0\x82g2$\x18\xc8?'
p150
tp151
Rp152
sg19
g20
(g21
(I0
tp153
g23
tp154
Rp155
(I1
(I2
tp156
g7
I00
S'\xf6(\\\x8f\xc2\xad{@\xecQ\xb8\x1e\x85\xbba@'
p157
tp158
bssI1025311
(dp159
g2
g3
(g7
S'l\xa2\xa0\xd00C\xdc?'
p160
tp161
Rp162
sg13
F1348889960.618481
sg14
I1025311
sg15
g3
(g7
S'\x00T\xf4\x84}\x87\xba?'
p163
tp164
Rp165
sg19
g20
(g21
(I0
tp166
g23
tp167
Rp168
(I1
(I2
tp169
g7
I00
S'\xf4\x05}A_\xe0z@\x18\xf4\x05}A?a@'
p170
tp171
bssI1025312
(dp172
g2
g3
(g7
S'\x9a\x99\x99\x99\x99\x99\xd9?'
p173
tp174
Rp175
sg13
F1348889960.628487
sg14
I1025312
sg15
g3
(g7
S'`U\x1d%\xc5\xc5\xcb?'
p176
tp177
Rp178
sg19
g20
(g21
(I0
tp179
g23
tp180
Rp181
(I1
(I2
tp182
g7
I00
S'eMYS\xd6\x14z@\x83\xbe\xa0/\xe8\xcb`@'
p183
tp184
bssI1025313
(dp185
g2
g3
(g7
S'\x13\xcb\x05\x1d\x15\xed\xd6?'
p186
tp187
Rp188
sg13
F1348889960.63884
sg14
I1025313
sg15
g3
(g7
S'\xe0\x17\xde\x95\xd2B\xcd?'
p189
tp190
Rp191
sg19
g20
(g21
(I0
tp192
g23
tp193
Rp194
(I1
(I2
tp195
g7
I00
S'\xec\xc4N\xec\xc4Ry@\xd9\x89\x9d\xd8\x89e`@'
p196
tp197
bssI1025314
(dp198
g2
g3
(g7
S'\x16\xf5\xdb6\x86\x0b\xe1?'
p199
tp200
Rp201
sg13
F1348889960.648383
sg14
I1025314
sg15
g3
(g7
S'\x10va\x00\xb4\xaf\xc4?'
p202
tp203
Rp204
sg19
g20
(g21
(I0
tp205
g23
tp206
Rp207
(I1
(I2
tp208
g7
I00
S'B{\t\xed%\x94x@\x1c\xc7q\x1c\xc7\x01`@'
p209
tp210
bssI1025315
(dp211
g2
g3
(g7
S'\xb4\xc6NB!\x03\xdb?'
p212
tp213
Rp214
sg13
F1348889960.658254
sg14
I1025315
sg15
g3
(g7
S'\xb0\xe8N\x02/%\xc8?'
p215
tp216
Rp217
sg19
g20
(g21
(I0
tp218
g23
tp219
Rp220
(I1
(I2
tp221
g7
I00
S'\x1c\xc7q\x1c\xc7\xe1w@\xb4\x97\xd0^B[_@'
p222
tp223
bssI1025316
(dp224
g2
g3
(g7
S'yO\x8e\xc6\xd1\x98\xdb?'
p225
tp226
Rp227
sg13
F1348889960.668316
sg14
I1025316
sg15
g3
(g7
S'`\x1eJ\x88\xfb_\xb9?'
p228
tp229
Rp230
sg19
g20
(g21
(I0
tp231
g23
tp232
Rp233
(I1
(I2
tp234
g7
I00
S'\xaeG\xe1z\x14>w@{\x14\xaeG\xe1\xba^@'
p235
tp236
bssI1025317
(dp237
g2
g3
(g7
S'\xfc\xfd\x12\xc0\x1e\x82\xda?'
p238
tp239
Rp240
sg13
F1348889960.678186
sg14
I1025317
sg15
g3
(g7
S'\x80\xbd\xb1\xb5\xf3\xdb\xbe?'
p241
tp242
Rp243
sg19
g20
(g21
(I0
tp244
g23
tp245
Rp246
(I1
(I2
tp247
g7
I00
S'Lh/\xa1\xbd\x9cv@\xab\xaa\xaa\xaa\xaa*^@'
p248
tp249
bssI1025318
(dp250
g2
g3
(g7
S'\xb3\x1d\xac\xcc(\x93\xda?'
p251
tp252
Rp253
sg13
F1348889960.688437
sg14
I1025318
sg15
g3
(g7
S'\xb0K\x9f\xe7\xc6\x93\xc0?'
p254
tp255
Rp256
sg19
g20
(g21
(I0
tp257
g23
tp258
Rp259
(I1
(I2
tp260
g7
I00
S'\n\xd7\xa3p=\x02v@\xe1z\x14\xaeG\xa1]@'
p261
tp262
bssI1025319
(dp263
g2
g3
(g7
S'\xb9|\xa2\x0b\x07\x16\xdf?'
p264
tp265
Rp266
sg13
F1348889960.698567
sg14
I1025319
sg15
g3
(g7
S'0Wh\xe72\xcc\xc4?'
p267
tp268
Rp269
sg19
g20
(g21
(I0
tp270
g23
tp271
Rp272
(I1
(I2
tp273
g7
I00
S'\xdb\xb6m\xdb\xb6ou@\x92$I\x92$)]@'
p274
tp275
bssI1025320
(dp276
g2
g3
(g7
S'\x9a\x99\x99\x99\x99\x99\xd9?'
p277
tp278
Rp279
sg13
F1348889960.708187
sg14
I1025320
sg15
g3
(g7
S'\x10{\xdf\xd8J\x8e\xc3?'
p280
tp281
Rp282
sg19
g20
(g21
(I0
tp283
g23
tp284
Rp285
(I1
(I2
tp286
g7
I00
S'\x12w\xc4\x1dq\xe7t@}A_\xd0\x17\xb4\\@'
p287
tp288
bssI1025321
(dp289
g2
g3
(g7
S'3\xe6\xc3\xef\xa6S\xe0?'
p290
tp291
Rp292
sg13
F1348889960.718612
sg14
I1025321
sg15
g3
(g7
S'\xa0\xac\x9d,\xbcL\xb5?'
p293
tp294
Rp295
sg19
g20
(g21
(I0
tp296
g23
tp297
Rp298
(I1
(I2
tp299
g7
I00
S'w%jW\xa2ft@\xc8\xe0|\x0c\xceG\\@'
p300
tp301
bssI1025322
(dp302
g2
g3
(g7
S'\xf5\xcf6\xdc:\x9f\xda?'
p303
tp304
Rp305
sg13
F1348889960.72849
sg14
I1025322
sg15
g3
(g7
S'pr\x9f\xd4\x1fd\xc1?'
p306
tp307
Rp308
sg19
g20
(g21
(I0
tp309
g23
tp310
Rp311
(I1
(I2
tp312
g7
I00
S'g\xa3\xbe\xb3Q\xefs@<\x1b\xf5\x9d\x8d\xfa[@'
p313
tp314
bssI1025323
(dp315
g2
g3
(g7
S's\xa5{\xa9BG\xda?'
p316
tp317
Rp318
sg13
F1348889960.738293
sg14
I1025323
sg15
g3
(g7
S'`%G\xab\xf9\xf4\xb6?'
p319
tp320
Rp321
sg19
g20
(g21
(I0
tp322
g23
tp323
Rp324
(I1
(I2
tp325
g7
I00
S'\xab\xaa\xaa\xaa\xaass@\x00\x00\x00\x00\x00\xa8[@'
p326
tp327
bssI1025324
(dp328
g2
g3
(g7
S'\x04\xd5qb\xeb\xbf\xde?'
p329
tp330
Rp331
sg13
F1348889960.748413
sg14
I1025324
sg15
g3
(g7
S'\x80\xf1SgC\xa3\xc4?'
p332
tp333
Rp334
sg19
g20
(g21
(I0
tp335
g23
tp336
Rp337
(I1
(I2
tp338
g7
I00
S'r\x1c\xc7q\x1c\x03s@\xab\xaa\xaa\xaa\xaaj[@'
p339
tp340
bssI1025325
(dp341
g2
g3
(g7
S'oD\xedf\x1b_\xe2?'
p342
tp343
Rp344
sg13
F1348889960.758185
sg14
I1025325
sg15
g3
(g7
S'<\x17\xd2.n\x97\xe1?'
p345
tp346
Rp347
sg19
g20
(g21
(I0
tp348
g23
tp349
Rp350
(I1
(I2
tp351
g7
I00
S"'vb'v\x9ar@b'vb'&[@"
p352
tp353
bssI1025326
(dp354
g2
g3
(g7
S')\xe5\xb2|C\xc0\xe0?'
p355
tp356
Rp357
sg13
F1348889960.768334
sg14
I1025326
sg15
g3
(g7
S'\xd0\xc3\x10\x1a:\xa2\xea?'
p358
tp359
Rp360
sg19
g20
(g21
(I0
tp361
g23
tp362
Rp363
(I1
(I2
tp364
g7
I00
S'\xcf\xf3<\xcf\xf3<r@n\xdb\xb6m\xdb\x96Z@'
p365
tp366
bssI1025327
(dp367
g2
g3
(g7
S'\x81\xf3\xdb\x8e0\xa4\xd9?'
p368
tp369
Rp370
sg13
F1348889960.778261
sg14
I1025327
sg15
g3
(g7
S'p\x8cyB\x1e\xc4\xf1?'
p371
tp372
Rp373
sg19
g20
(g21
(I0
tp374
g23
tp375
Rp376
(I1
(I2
tp377
g7
I00
S'YS\xd6\x945\xf5q@\x9b\xb2\xa6\xac)\xabY@'
p378
tp379
bssI1025328
(dp380
g2
g3
(g7
S'\xfaQ[aX\x10\xdb?'
p381
tp382
Rp383
sg13
F1348889960.788445
sg14
I1025328
sg15
g3
(g7
S'X\xf5\n\x97\xb3\x00\xf6?'
p384
tp385
Rp386
sg19
g20
(g21
(I0
tp387
g23
tp388
Rp389
(I1
(I2
tp390
g7
I00
S't\xd1E\x17]\xd0q@t\xd1E\x17]TX@'
p391
tp392
bssI1025329
(dp393
g2
g3
(g7
S'\xd7\x8c\x87~\x14\xdd\xd5?'
p394
tp395
Rp396
sg13
F1348889960.798269
sg14
I1025329
sg15
g3
(g7
S'\x08\x14\xbcV\x1d\xde\xf8?'
p397
tp398
Rp399
sg19
g20
(g21
(I0
tp400
g23
tp401
Rp402
(I1
(I2
tp403
g7
I00
S'I\x92$I\x92\xcaq@n\xdb\xb6m\xdbFV@'
p404
tp405
bssI1025330
(dp406
g2
g3
(g7
S'\xff\xa9\xad\x13p\xef\xd9?'
p407
tp408
Rp409
sg13
F1348889960.808364
sg14
I1025330
sg15
g3
(g7
S'\xe8\xae\xb5\xedD\xd6\xf9?'
p410
tp411
Rp412
sg19
g20
(g21
(I0
tp413
g23
tp414
Rp415
(I1
(I2
tp416
g7
I00
S'\xcfF}g\xa3\xeeq@1\xb9\x82\x98\\\xc1S@'
p417
tp418
bssI1025331
(dp419
g2
g3
(g7
S'\xf0\xbc\xbb`\xc6"\xdb?'
p420
tp421
Rp422
sg13
F1348889960.81828
sg14
I1025331
sg15
g3
(g7
S'D{\x8971k\xfc?'
p423
tp424
Rp425
sg19
g20
(g21
(I0
tp426
g23
tp427
Rp428
(I1
(I2
tp429
g7
I00
S'\x9a\x99\x99\x99\x999r@\\\x8f\xc2\xf5(\xfcP@'
p430
tp431
bssI1025332
(dp432
g2
g3
(g7
S"\xfc\x88\xb3\xc8'<\xd7?"
p433
tp434
Rp435
sg13
F1348889960.828607
sg14
I1025332
sg15
g3
(g7
S'\xc0\xb3\x02\xd5\xd2\x7f\xfd?'
p436
tp437
Rp438
sg19
g20
(g21
(I0
tp439
g23
tp440
Rp441
(I1
(I2
tp442
g7
I00
S'\x8b\xe9,\xa6\xb3\xa8r@\xcfb:\x8b\xe9\xacK@'
p443
tp444
bssI1025333
(dp445
g2
g3
(g7
S'WW\xae\xe5\xd8\xb3\xdb?'
p446
tp447
Rp448
sg13
F1348889960.838333
sg14
I1025333
sg15
g3
(g7
S'\xc0\xd6\x12v\xb1\x85\xff?'
p449
tp450
Rp451
sg19
g20
(g21
(I0
tp452
g23
tp453
Rp454
(I1
(I2
tp455
g7
I00
S'\x91\x90\x90\x90\x900s@~~~~~\xfeD@'
p456
tp457
bssI1025334
(dp458
g2
g3
(g7
S'j\x12\x13Vh6\xdd?'
p459
tp460
Rp461
sg13
F1348889960.8483
sg14
I1025334
sg15
g3
(g7
S'\x8c\x01D\xb7\xf7\x97\xfd?'
p462
tp463
Rp464
sg19
g20
(g21
(I0
tp465
g23
tp466
Rp467
(I1
(I2
tp468
g7
I00
S'\x07uP\x07u\xc8s@33333\xb3;@'
p469
tp470
bss.